; Function Attrs: nounwind uwtable
define nonnull ptr @l_Lean_FileMap_rangeOverlapsRequestedRange___boxed(ptr noundef %0, ptr noundef %1, ptr noundef %2, ptr noundef %3, ptr noundef %4) local_unnamed_addr #1 {
  %6 = ptrtoint ptr %3 to i64
  %7 = and i64 %6, 1
  %.not = icmp eq i64 %7, 0
  br i1 %.not, label %8, label %lean_dec.exit16

8:                                                ; preds = %5
  %9 = load i32, ptr %3, align 4, !tbaa !4
  %10 = icmp sgt i32 %9, 1
  br i1 %10, label %11, label %13, !prof !11

11:                                               ; preds = %8
  %12 = add nsw i32 %9, -1
  store i32 %12, ptr %3, align 4, !tbaa !4
  br label %lean_dec.exit16

13:                                               ; preds = %8
  %.not.i = icmp eq i32 %9, 0
  br i1 %.not.i, label %lean_dec.exit16, label %14

14:                                               ; preds = %13
  tail call void @lean_dec_ref_cold(ptr noundef nonnull %3) #6
  br label %lean_dec.exit16

lean_dec.exit16:                                  ; preds = %14, %13, %11, %5
  %15 = ptrtoint ptr %4 to i64
  %16 = lshr i64 %15, 1
  %17 = trunc i64 %16 to i8
  %18 = and i64 %15, 1
  %.not26 = icmp eq i64 %18, 0
  br i1 %.not26, label %19, label %lean_dec.exit15

19:                                               ; preds = %lean_dec.exit16
  %20 = load i32, ptr %4, align 4, !tbaa !4
  %21 = icmp sgt i32 %20, 1
  br i1 %21, label %22, label %24, !prof !11

22:                                               ; preds = %19
  %23 = add nsw i32 %20, -1
  store i32 %23, ptr %4, align 4, !tbaa !4
  br label %lean_dec.exit15

24:                                               ; preds = %19
  %.not.i17 = icmp eq i32 %20, 0
  br i1 %.not.i17, label %lean_dec.exit15, label %25

25:                                               ; preds = %24
  tail call void @lean_dec_ref_cold(ptr noundef nonnull %4) #6
  br label %lean_dec.exit15

lean_dec.exit15:                                  ; preds = %25, %24, %22, %lean_dec.exit16
  %26 = and i64 %6, 510
  %27 = icmp eq i64 %26, 0
  br i1 %27, label %28, label %l_Lean_FileMap_rangeOverlapsRequestedRange.exit

28:                                               ; preds = %lean_dec.exit15
  %29 = getelementptr inbounds nuw i8, ptr %1, i64 16
  %30 = load ptr, ptr %29, align 8, !tbaa !9
  %31 = getelementptr inbounds nuw i8, ptr %0, i64 8
  %32 = load ptr, ptr %31, align 8, !tbaa !9
  %33 = getelementptr i8, ptr %32, i64 8
  %.val.i = load i64, ptr %33, align 8, !tbaa !12
  %34 = shl i64 %.val.i, 1
  %35 = add i64 %34, -1
  %36 = inttoptr i64 %35 to ptr
  %37 = ptrtoint ptr %30 to i64
  %38 = and i64 %37, 1
  %.not.i25 = icmp eq i64 %38, 0
  br i1 %.not.i25, label %.critedge.i.i, label %39, !prof !14

39:                                               ; preds = %28
  %40 = icmp eq ptr %30, %36
  br label %lean_dec.exit.i

.critedge.i.i:                                    ; preds = %28
  %41 = tail call zeroext i1 @lean_nat_big_eq(ptr noundef %30, ptr noundef nonnull %36) #6
  br label %lean_dec.exit.i

lean_dec.exit.i:                                  ; preds = %.critedge.i.i, %39
  %.0.i.i = phi i1 [ %40, %39 ], [ %41, %.critedge.i.i ]
  %42 = zext i1 %.0.i.i to i8
  br label %l_Lean_FileMap_rangeOverlapsRequestedRange.exit

l_Lean_FileMap_rangeOverlapsRequestedRange.exit:  ; preds = %lean_dec.exit15, %lean_dec.exit.i
  %.sink.i = phi i8 [ %42, %lean_dec.exit.i ], [ 1, %lean_dec.exit15 ]
  %43 = tail call zeroext i8 @l_String_Range_overlaps(ptr noundef %1, ptr noundef %2, i8 noundef zeroext %.sink.i, i8 noundef zeroext %17) #6
  %44 = ptrtoint ptr %2 to i64
  %45 = and i64 %44, 1
  %.not27 = icmp eq i64 %45, 0
  br i1 %.not27, label %46, label %lean_dec.exit14

46:                                               ; preds = %l_Lean_FileMap_rangeOverlapsRequestedRange.exit
  %47 = load i32, ptr %2, align 4, !tbaa !4
  %48 = icmp sgt i32 %47, 1
  br i1 %48, label %49, label %51, !prof !11

49:                                               ; preds = %46
  %50 = add nsw i32 %47, -1
  store i32 %50, ptr %2, align 4, !tbaa !4
  br label %lean_dec.exit14

51:                                               ; preds = %46
  %.not.i19 = icmp eq i32 %47, 0
  br i1 %.not.i19, label %lean_dec.exit14, label %52

52:                                               ; preds = %51
  tail call void @lean_dec_ref_cold(ptr noundef nonnull %2) #6
  br label %lean_dec.exit14

lean_dec.exit14:                                  ; preds = %52, %51, %49, %l_Lean_FileMap_rangeOverlapsRequestedRange.exit
  %53 = ptrtoint ptr %1 to i64
  %54 = and i64 %53, 1
  %.not28 = icmp eq i64 %54, 0
  br i1 %.not28, label %55, label %lean_dec.exit13

55:                                               ; preds = %lean_dec.exit14
  %56 = load i32, ptr %1, align 4, !tbaa !4
  %57 = icmp sgt i32 %56, 1
  br i1 %57, label %58, label %60, !prof !11

58:                                               ; preds = %55
  %59 = add nsw i32 %56, -1
  store i32 %59, ptr %1, align 4, !tbaa !4
  br label %lean_dec.exit13

60:                                               ; preds = %55
  %.not.i21 = icmp eq i32 %56, 0
  br i1 %.not.i21, label %lean_dec.exit13, label %61

61:                                               ; preds = %60
  tail call void @lean_dec_ref_cold(ptr noundef nonnull %1) #6
  br label %lean_dec.exit13

lean_dec.exit13:                                  ; preds = %61, %60, %58, %lean_dec.exit14
  %62 = ptrtoint ptr %0 to i64
  %63 = and i64 %62, 1
  %.not29 = icmp eq i64 %63, 0
  br i1 %.not29, label %64, label %lean_dec.exit

64:                                               ; preds = %lean_dec.exit13
  %65 = load i32, ptr %0, align 4, !tbaa !4
  %66 = icmp sgt i32 %65, 1
  br i1 %66, label %67, label %69, !prof !11

67:                                               ; preds = %64
  %68 = add nsw i32 %65, -1
  store i32 %68, ptr %0, align 4, !tbaa !4
  br label %lean_dec.exit

69:                                               ; preds = %64
  %.not.i23 = icmp eq i32 %65, 0
  br i1 %.not.i23, label %lean_dec.exit, label %70

70:                                               ; preds = %69
  tail call void @lean_dec_ref_cold(ptr noundef nonnull %0) #6
  br label %lean_dec.exit

lean_dec.exit:                                    ; preds = %70, %69, %67, %lean_dec.exit13
  %71 = zext i8 %43 to i64
  %72 = shl nuw nsw i64 %71, 1
  %73 = or disjoint i64 %72, 1
  %74 = inttoptr i64 %73 to ptr
  ret ptr %74
}